target datalayout = "e-m:e-p270:32:32-p271:32:32-p272:64:64-i64:64-i128:128-f80:128-n8:16:32:64-S128"
target triple = "x86_64-pc-linux-gnu"

%struct._object = type { %union.anon, ptr }
%union.anon = type { i64 }
%struct.anon = type { i32, i32 }
%struct.PySetObject = type { %struct._object, i64, i64, i64, ptr, i64, i64, [8 x %struct.setentry], ptr }
%struct.setentry = type { ptr, i64 }

@PyExc_TypeError = external global ptr, align 8

; Function Attrs: alwaysinline nounwind uwtable
define internal i32 @_Py_IsImmortal(ptr noundef %0) #4 {
  %2 = alloca ptr, align 8
  store ptr %0, ptr %2, align 8, !tbaa !4
  %3 = load ptr, ptr %2, align 8, !tbaa !4
  %4 = getelementptr inbounds nuw %struct._object, ptr %3, i32 0, i32 0
  %5 = getelementptr inbounds nuw %struct.anon, ptr %4, i32 0, i32 0
  %6 = load i32, ptr %5, align 8, !tbaa !46
  %7 = icmp slt i32 %6, 0
  %8 = zext i1 %7 to i32
  ret i32 %8
}

; Function Attrs: alwaysinline nounwind uwtable
define internal void @Py_DECREF(ptr noundef %0) #4 {
  %2 = alloca ptr, align 8
  store ptr %0, ptr %2, align 8, !tbaa !4
  %3 = load ptr, ptr %2, align 8, !tbaa !4
  %4 = call i32 @_Py_IsImmortal(ptr noundef %3)
  %5 = icmp ne i32 %4, 0
  br i1 %5, label %6, label %7

6:                                                ; preds = %1
  br label %16

7:                                                ; preds = %1
  %8 = load ptr, ptr %2, align 8, !tbaa !4
  %9 = getelementptr inbounds nuw %struct._object, ptr %8, i32 0, i32 0
  %10 = getelementptr inbounds nuw %struct.anon, ptr %9, i32 0, i32 0
  %11 = load i32, ptr %10, align 8, !tbaa !46
  %12 = add i32 %11, -1
  store i32 %12, ptr %10, align 8, !tbaa !46
  %13 = icmp eq i32 %12, 0
  br i1 %13, label %14, label %16

14:                                               ; preds = %7
  %15 = load ptr, ptr %2, align 8, !tbaa !4
  call void @_Py_Dealloc(ptr noundef %15)
  br label %16

16:                                               ; preds = %6, %14, %7
  ret void
}

; Function Attrs: inlinehint nounwind uwtable
define internal i64 @PySet_GET_SIZE(ptr noundef %0) #3 {
  %2 = alloca ptr, align 8
  store ptr %0, ptr %2, align 8, !tbaa !4
  %3 = load ptr, ptr %2, align 8, !tbaa !4
  %4 = getelementptr inbounds nuw %struct.PySetObject, ptr %3, i32 0, i32 2
  %5 = load i64, ptr %4, align 8, !tbaa !65
  ret i64 %5
}

; Function Attrs: nounwind uwtable
define internal i32 @_in_weak_set(ptr noundef %0, ptr noundef %1, ptr noundef %2) #0 {
  %4 = alloca i32, align 4
  %5 = alloca ptr, align 8
  %6 = alloca ptr, align 8
  %7 = alloca ptr, align 8
  %8 = alloca ptr, align 8
  %9 = alloca i32, align 4
  %10 = alloca ptr, align 8
  %11 = alloca i32, align 4
  store ptr %0, ptr %5, align 8, !tbaa !9
  store ptr %1, ptr %6, align 8, !tbaa !25
  store ptr %2, ptr %7, align 8, !tbaa !4
  call void @llvm.lifetime.start.p0(i64 8, ptr %8) #5
  %12 = load ptr, ptr %6, align 8, !tbaa !25
  %13 = load ptr, ptr %12, align 8, !tbaa !4
  store ptr %13, ptr %8, align 8, !tbaa !4
  %14 = load ptr, ptr %8, align 8, !tbaa !4
  %15 = icmp eq ptr %14, null
  br i1 %15, label %20, label %16

16:                                               ; preds = %3
  %17 = load ptr, ptr %8, align 8, !tbaa !4
  %18 = call i64 @PySet_GET_SIZE(ptr noundef %17)
  %19 = icmp eq i64 %18, 0
  br i1 %19, label %20, label %21

20:                                               ; preds = %16, %3
  store i32 0, ptr %4, align 4
  store i32 1, ptr %9, align 4
  br label %39

21:                                               ; preds = %16
  call void @llvm.lifetime.start.p0(i64 8, ptr %10) #5
  %22 = load ptr, ptr %7, align 8, !tbaa !4
  %23 = call ptr @PyWeakref_NewRef(ptr noundef %22, ptr noundef null)
  store ptr %23, ptr %10, align 8, !tbaa !4
  %24 = load ptr, ptr %10, align 8, !tbaa !4
  %25 = icmp eq ptr %24, null
  br i1 %25, label %26, label %32

26:                                               ; preds = %21
  %27 = load ptr, ptr @PyExc_TypeError, align 8, !tbaa !4
  %28 = call i32 @PyErr_ExceptionMatches(ptr noundef %27)
  %29 = icmp ne i32 %28, 0
  br i1 %29, label %30, label %31

30:                                               ; preds = %26
  call void @PyErr_Clear()
  store i32 0, ptr %4, align 4
  store i32 1, ptr %9, align 4
  br label %38

31:                                               ; preds = %26
  store i32 -1, ptr %4, align 4
  store i32 1, ptr %9, align 4
  br label %38

32:                                               ; preds = %21
  call void @llvm.lifetime.start.p0(i64 4, ptr %11) #5
  %33 = load ptr, ptr %8, align 8, !tbaa !4
  %34 = load ptr, ptr %10, align 8, !tbaa !4
  %35 = call i32 @PySet_Contains(ptr noundef %33, ptr noundef %34)
  store i32 %35, ptr %11, align 4, !tbaa !14
  %36 = load ptr, ptr %10, align 8, !tbaa !4
  call void @Py_DECREF(ptr noundef %36)
  %37 = load i32, ptr %11, align 4, !tbaa !14
  store i32 %37, ptr %4, align 4
  store i32 1, ptr %9, align 4
  call void @llvm.lifetime.end.p0(i64 4, ptr %11) #5
  br label %38

38:                                               ; preds = %32, %31, %30
  call void @llvm.lifetime.end.p0(i64 8, ptr %10) #5
  br label %39

39:                                               ; preds = %38, %20
  call void @llvm.lifetime.end.p0(i64 8, ptr %8) #5
  %40 = load i32, ptr %4, align 4
  ret i32 %40
}