; Function Attrs: nounwind uwtable
define internal fastcc i32 @_in_weak_set(ptr %.0.val, ptr noundef %0) unnamed_addr #0 {
  %2 = icmp eq ptr %.0.val, null
  br i1 %2, label %Py_DECREF.exit, label %3

3:                                                ; preds = %1
  %4 = getelementptr i8, ptr %.0.val, i64 24
  %.val = load i64, ptr %4, align 8, !tbaa !53
  %5 = icmp eq i64 %.val, 0
  br i1 %5, label %Py_DECREF.exit, label %6

6:                                                ; preds = %3
  %7 = tail call ptr @PyWeakref_NewRef(ptr noundef %0, ptr noundef null) #4
  %8 = icmp eq ptr %7, null
  br i1 %8, label %9, label %13

9:                                                ; preds = %6
  %10 = load ptr, ptr @PyExc_TypeError, align 8, !tbaa !24
  %11 = tail call i32 @PyErr_ExceptionMatches(ptr noundef %10) #4
  %.not = icmp eq i32 %11, 0
  br i1 %.not, label %Py_DECREF.exit, label %12

12:                                               ; preds = %9
  tail call void @PyErr_Clear() #4
  br label %Py_DECREF.exit

13:                                               ; preds = %6
  %14 = tail call i32 @PySet_Contains(ptr noundef nonnull %.0.val, ptr noundef nonnull %7) #4
  %15 = load i32, ptr %7, align 8, !tbaa !17
  %.not.i = icmp sgt i32 %15, -1
  br i1 %.not.i, label %16, label %Py_DECREF.exit

16:                                               ; preds = %13
  %17 = add nsw i32 %15, -1
  store i32 %17, ptr %7, align 8, !tbaa !17
  %18 = icmp eq i32 %17, 0
  br i1 %18, label %19, label %Py_DECREF.exit

19:                                               ; preds = %16
  tail call void @_Py_Dealloc(ptr noundef nonnull %7) #4
  br label %Py_DECREF.exit

Py_DECREF.exit:                                   ; preds = %19, %16, %13, %12, %9, %1, %3
  %.0 = phi i32 [ 0, %3 ], [ 0, %1 ], [ 0, %12 ], [ -1, %9 ], [ %14, %13 ], [ %14, %16 ], [ %14, %19 ]
  ret i32 %.0
}